target datalayout = "e-m:e-p270:32:32-p271:32:32-p272:64:64-i64:64-i128:128-f80:128-n8:16:32:64-S128"
target triple = "x86_64-pc-linux-gnu"

; Function Attrs: nounwind uwtable
define i32 @Dau_DsdDecomposeInternal(ptr noundef %0, ptr noundef %1, ptr noundef %2, i32 noundef %3) #0 {
  %5 = alloca i32, align 4
  %6 = alloca ptr, align 8
  %7 = alloca ptr, align 8
  %8 = alloca ptr, align 8
  %9 = alloca i32, align 4
  store ptr %0, ptr %6, align 8, !tbaa !80
  store ptr %1, ptr %7, align 8, !tbaa !35
  store ptr %2, ptr %8, align 8, !tbaa !14
  store i32 %3, ptr %9, align 4, !tbaa !8
  %10 = load ptr, ptr %6, align 8, !tbaa !80
  %11 = load ptr, ptr %7, align 8, !tbaa !35
  %12 = load ptr, ptr %8, align 8, !tbaa !14
  %13 = load i32, ptr %9, align 4, !tbaa !8
  %14 = call i32 @Dau_DsdDecomposeSingleVar(ptr noundef %10, ptr noundef %11, ptr noundef %12, i32 noundef %13)
  store i32 %14, ptr %9, align 4, !tbaa !8
  %15 = load i32, ptr %9, align 4, !tbaa !8
  %16 = icmp eq i32 %15, 0
  br i1 %16, label %17, label %18

17:                                               ; preds = %4
  store i32 0, ptr %5, align 4
  br label %42

18:                                               ; preds = %4
  %19 = load ptr, ptr %6, align 8, !tbaa !80
  %20 = load ptr, ptr %7, align 8, !tbaa !35
  %21 = load ptr, ptr %8, align 8, !tbaa !14
  %22 = load i32, ptr %9, align 4, !tbaa !8
  %23 = call i32 @Dau_DsdDecomposeDoubleVars(ptr noundef %19, ptr noundef %20, ptr noundef %21, i32 noundef %22)
  store i32 %23, ptr %9, align 4, !tbaa !8
  %24 = load i32, ptr %9, align 4, !tbaa !8
  %25 = icmp eq i32 %24, 0
  br i1 %25, label %26, label %27

26:                                               ; preds = %18
  store i32 0, ptr %5, align 4
  br label %42

27:                                               ; preds = %18
  %28 = load ptr, ptr %6, align 8, !tbaa !80
  %29 = load ptr, ptr %7, align 8, !tbaa !35
  %30 = load ptr, ptr %8, align 8, !tbaa !14
  %31 = load i32, ptr %9, align 4, !tbaa !8
  %32 = call i32 @Dau_DsdDecomposeTripleVars(ptr noundef %28, ptr noundef %29, ptr noundef %30, i32 noundef %31)
  store i32 %32, ptr %9, align 4, !tbaa !8
  %33 = load i32, ptr %9, align 4, !tbaa !8
  %34 = icmp eq i32 %33, 0
  br i1 %34, label %35, label %36

35:                                               ; preds = %27
  store i32 0, ptr %5, align 4
  br label %42

36:                                               ; preds = %27
  %37 = load ptr, ptr %6, align 8, !tbaa !80
  %38 = load ptr, ptr %7, align 8, !tbaa !35
  %39 = load ptr, ptr %8, align 8, !tbaa !14
  %40 = load i32, ptr %9, align 4, !tbaa !8
  %41 = call i32 @Dau_DsdWritePrime(ptr noundef %37, ptr noundef %38, ptr noundef %39, i32 noundef %40)
  store i32 %41, ptr %5, align 4
  br label %42

42:                                               ; preds = %36, %35, %26, %17
  %43 = load i32, ptr %5, align 4
  ret i32 %43
}