; Function Attrs: nounwind uwtable
define range(i32 0, 3) i32 @Dau_DsdDecomposeInternal(ptr noundef %0, ptr noundef %1, ptr noundef captures(none) %2, i32 noundef %3) local_unnamed_addr #3 {
  %5 = tail call i32 @Dau_DsdDecomposeSingleVar(ptr noundef %0, ptr noundef %1, ptr noundef %2, i32 noundef %3)
  %6 = icmp eq i32 %5, 0
  br i1 %6, label %15, label %7

7:                                                ; preds = %4
  %8 = tail call i32 @Dau_DsdDecomposeDoubleVars(ptr noundef %0, ptr noundef %1, ptr noundef %2, i32 noundef %5)
  %9 = icmp eq i32 %8, 0
  br i1 %9, label %15, label %10

10:                                               ; preds = %7
  %11 = tail call i32 @Dau_DsdDecomposeTripleVars(ptr noundef %0, ptr noundef %1, ptr noundef %2, i32 noundef %8)
  %12 = icmp eq i32 %11, 0
  br i1 %12, label %15, label %13

13:                                               ; preds = %10
  %14 = tail call fastcc i32 @Dau_DsdWritePrime(ptr noundef %0, ptr noundef %1, ptr noundef %2, i32 noundef %11)
  br label %15

15:                                               ; preds = %10, %7, %4, %13
  %.0 = phi i32 [ %14, %13 ], [ 0, %4 ], [ 0, %7 ], [ 0, %10 ]
  ret i32 %.0
}